target datalayout = "e-m:e-p270:32:32-p271:32:32-p272:64:64-i64:64-i128:128-f80:128-n8:16:32:64-S128"
target triple = "x86_64-pc-linux-gnu"

%class.SaveSnapshotDialog = type { %class.QDialog, ptr, %class.SnapshotSetting }
%class.QDialog = type { %class.QWidget }
%class.QWidget = type { %class.QObject, %class.QPaintDevice, ptr }
%class.QObject = type { ptr, %class.QScopedPointer }
%class.QScopedPointer = type { ptr }
%class.QPaintDevice = type { ptr, i16, ptr }
%class.SnapshotSetting = type { %class.QString, %class.QString, i32, i32, i32, i8, i8, i8, i8 }
%class.QString = type { ptr }
%class.Ui_SaveSnapShotDialog = type { ptr, ptr, ptr, ptr, ptr, ptr, ptr, ptr, ptr, ptr, ptr, ptr, ptr, ptr, ptr, ptr, ptr, ptr, ptr, ptr, ptr, ptr, ptr, ptr, ptr, ptr, ptr, ptr }

; Function Attrs: mustprogress nounwind uwtable
define linkonce_odr noundef nonnull align 8 dereferenceable(32) ptr @_ZN15SnapshotSettingaSERKS_(ptr noundef nonnull align 8 dereferenceable(32) %0, ptr noundef nonnull align 8 dereferenceable(32) %1) #1 comdat align 2 {
  %3 = alloca ptr, align 8
  %4 = alloca ptr, align 8
  store ptr %0, ptr %3, align 8
  store ptr %1, ptr %4, align 8
  %5 = load ptr, ptr %3, align 8
  %6 = getelementptr inbounds %class.SnapshotSetting, ptr %5, i32 0, i32 0
  %7 = load ptr, ptr %4, align 8
  %8 = getelementptr inbounds %class.SnapshotSetting, ptr %7, i32 0, i32 0
  %9 = call noundef nonnull align 8 dereferenceable(8) ptr @_ZN7QStringaSERKS_(ptr noundef nonnull align 8 dereferenceable(8) %6, ptr noundef nonnull align 8 dereferenceable(8) %8) #11
  %10 = getelementptr inbounds %class.SnapshotSetting, ptr %5, i32 0, i32 1
  %11 = load ptr, ptr %4, align 8
  %12 = getelementptr inbounds %class.SnapshotSetting, ptr %11, i32 0, i32 1
  %13 = call noundef nonnull align 8 dereferenceable(8) ptr @_ZN7QStringaSERKS_(ptr noundef nonnull align 8 dereferenceable(8) %10, ptr noundef nonnull align 8 dereferenceable(8) %12) #11
  %14 = getelementptr inbounds %class.SnapshotSetting, ptr %5, i32 0, i32 2
  %15 = load ptr, ptr %4, align 8
  %16 = getelementptr inbounds %class.SnapshotSetting, ptr %15, i32 0, i32 2
  call void @llvm.memcpy.p0.p0.i64(ptr align 8 %14, ptr align 8 %16, i64 16, i1 false)
  ret ptr %5
}

; Function Attrs: mustprogress uwtable
define void @_ZN18SaveSnapshotDialog9setValuesERK15SnapshotSetting(ptr noundef nonnull align 8 dereferenceable(88) %0, ptr noundef nonnull align 8 dereferenceable(32) %1) #0 align 2 {
  %3 = alloca ptr, align 8
  %4 = alloca ptr, align 8
  store ptr %0, ptr %3, align 8
  store ptr %1, ptr %4, align 8
  %5 = load ptr, ptr %3, align 8
  %6 = load ptr, ptr %4, align 8
  %7 = getelementptr inbounds %class.SaveSnapshotDialog, ptr %5, i32 0, i32 2
  %8 = call noundef nonnull align 8 dereferenceable(32) ptr @_ZN15SnapshotSettingaSERKS_(ptr noundef nonnull align 8 dereferenceable(32) %7, ptr noundef nonnull align 8 dereferenceable(32) %6) #11
  %9 = getelementptr inbounds %class.SaveSnapshotDialog, ptr %5, i32 0, i32 1
  %10 = load ptr, ptr %9, align 8
  %11 = getelementptr inbounds %class.Ui_SaveSnapShotDialog, ptr %10, i32 0, i32 8
  %12 = load ptr, ptr %11, align 8
  %13 = getelementptr inbounds %class.SaveSnapshotDialog, ptr %5, i32 0, i32 2
  %14 = getelementptr inbounds %class.SnapshotSetting, ptr %13, i32 0, i32 1
  call void @_ZN9QLineEdit7setTextERK7QString(ptr noundef nonnull align 8 dereferenceable(48) %12, ptr noundef nonnull align 8 dereferenceable(8) %14)
  %15 = getelementptr inbounds %class.SaveSnapshotDialog, ptr %5, i32 0, i32 1
  %16 = load ptr, ptr %15, align 8
  %17 = getelementptr inbounds %class.Ui_SaveSnapShotDialog, ptr %16, i32 0, i32 3
  %18 = load ptr, ptr %17, align 8
  %19 = getelementptr inbounds %class.SaveSnapshotDialog, ptr %5, i32 0, i32 2
  %20 = getelementptr inbounds %class.SnapshotSetting, ptr %19, i32 0, i32 0
  call void @_ZN9QLineEdit7setTextERK7QString(ptr noundef nonnull align 8 dereferenceable(48) %18, ptr noundef nonnull align 8 dereferenceable(8) %20)
  %21 = getelementptr inbounds %class.SaveSnapshotDialog, ptr %5, i32 0, i32 1
  %22 = load ptr, ptr %21, align 8
  %23 = getelementptr inbounds %class.Ui_SaveSnapShotDialog, ptr %22, i32 0, i32 24
  %24 = load ptr, ptr %23, align 8
  %25 = getelementptr inbounds %class.SaveSnapshotDialog, ptr %5, i32 0, i32 2
  %26 = getelementptr inbounds %class.SnapshotSetting, ptr %25, i32 0, i32 3
  %27 = load i32, ptr %26, align 4
  call void @_ZN8QSpinBox8setValueEi(ptr noundef nonnull align 8 dereferenceable(48) %24, i32 noundef %27)
  %28 = getelementptr inbounds %class.SaveSnapshotDialog, ptr %5, i32 0, i32 1
  %29 = load ptr, ptr %28, align 8
  %30 = getelementptr inbounds %class.Ui_SaveSnapShotDialog, ptr %29, i32 0, i32 10
  %31 = load ptr, ptr %30, align 8
  %32 = getelementptr inbounds %class.SaveSnapshotDialog, ptr %5, i32 0, i32 2
  %33 = getelementptr inbounds %class.SnapshotSetting, ptr %32, i32 0, i32 2
  %34 = load i32, ptr %33, align 8
  call void @_ZN8QSpinBox8setValueEi(ptr noundef nonnull align 8 dereferenceable(48) %31, i32 noundef %34)
  %35 = getelementptr inbounds %class.SaveSnapshotDialog, ptr %5, i32 0, i32 1
  %36 = load ptr, ptr %35, align 8
  %37 = getelementptr inbounds %class.Ui_SaveSnapShotDialog, ptr %36, i32 0, i32 21
  %38 = load ptr, ptr %37, align 8
  %39 = getelementptr inbounds %class.SaveSnapshotDialog, ptr %5, i32 0, i32 2
  %40 = getelementptr inbounds %class.SnapshotSetting, ptr %39, i32 0, i32 4
  %41 = load i32, ptr %40, align 8
  call void @_ZN9QComboBox15setCurrentIndexEi(ptr noundef nonnull align 8 dereferenceable(48) %38, i32 noundef %41)
  %42 = getelementptr inbounds %class.SaveSnapshotDialog, ptr %5, i32 0, i32 1
  %43 = load ptr, ptr %42, align 8
  %44 = getelementptr inbounds %class.Ui_SaveSnapShotDialog, ptr %43, i32 0, i32 14
  %45 = load ptr, ptr %44, align 8
  %46 = getelementptr inbounds %class.SaveSnapshotDialog, ptr %5, i32 0, i32 2
  %47 = getelementptr inbounds %class.SnapshotSetting, ptr %46, i32 0, i32 5
  %48 = load i8, ptr %47, align 4
  %49 = trunc i8 %48 to i1
  call void @_ZN15QAbstractButton10setCheckedEb(ptr noundef nonnull align 8 dereferenceable(48) %45, i1 noundef zeroext %49)
  %50 = getelementptr inbounds %class.SaveSnapshotDialog, ptr %5, i32 0, i32 1
  %51 = load ptr, ptr %50, align 8
  %52 = getelementptr inbounds %class.Ui_SaveSnapShotDialog, ptr %51, i32 0, i32 15
  %53 = load ptr, ptr %52, align 8
  %54 = getelementptr inbounds %class.SaveSnapshotDialog, ptr %5, i32 0, i32 2
  %55 = getelementptr inbounds %class.SnapshotSetting, ptr %54, i32 0, i32 6
  %56 = load i8, ptr %55, align 1
  %57 = trunc i8 %56 to i1
  call void @_ZN15QAbstractButton10setCheckedEb(ptr noundef nonnull align 8 dereferenceable(48) %53, i1 noundef zeroext %57)
  %58 = getelementptr inbounds %class.SaveSnapshotDialog, ptr %5, i32 0, i32 1
  %59 = load ptr, ptr %58, align 8
  %60 = getelementptr inbounds %class.Ui_SaveSnapShotDialog, ptr %59, i32 0, i32 17
  %61 = load ptr, ptr %60, align 8
  %62 = getelementptr inbounds %class.SaveSnapshotDialog, ptr %5, i32 0, i32 2
  %63 = getelementptr inbounds %class.SnapshotSetting, ptr %62, i32 0, i32 7
  %64 = load i8, ptr %63, align 2
  %65 = trunc i8 %64 to i1
  call void @_ZN15QAbstractButton10setCheckedEb(ptr noundef nonnull align 8 dereferenceable(48) %61, i1 noundef zeroext %65)
  %66 = getelementptr inbounds %class.SaveSnapshotDialog, ptr %5, i32 0, i32 1
  %67 = load ptr, ptr %66, align 8
  %68 = getelementptr inbounds %class.Ui_SaveSnapShotDialog, ptr %67, i32 0, i32 26
  %69 = load ptr, ptr %68, align 8
  %70 = getelementptr inbounds %class.SaveSnapshotDialog, ptr %5, i32 0, i32 2
  %71 = getelementptr inbounds %class.SnapshotSetting, ptr %70, i32 0, i32 8
  %72 = load i8, ptr %71, align 1
  %73 = trunc i8 %72 to i1
  call void @_ZN15QAbstractButton10setCheckedEb(ptr noundef nonnull align 8 dereferenceable(48) %69, i1 noundef zeroext %73)
  ret void
}