; Function Attrs: mustprogress uwtable
define void @_ZN18SaveSnapshotDialog9setValuesERK15SnapshotSetting(ptr noundef nonnull align 8 dereferenceable(88) %0, ptr noundef nonnull align 8 dereferenceable(32) %1) local_unnamed_addr #0 align 2 {
  %3 = getelementptr inbounds i8, ptr %0, i64 56
  %4 = tail call noundef nonnull align 8 dereferenceable(8) ptr @_ZN7QStringaSERKS_(ptr noundef nonnull align 8 dereferenceable(8) %3, ptr noundef nonnull align 8 dereferenceable(8) %1) #11
  %5 = getelementptr inbounds i8, ptr %0, i64 64
  %6 = getelementptr inbounds i8, ptr %1, i64 8
  %7 = tail call noundef nonnull align 8 dereferenceable(8) ptr @_ZN7QStringaSERKS_(ptr noundef nonnull align 8 dereferenceable(8) %5, ptr noundef nonnull align 8 dereferenceable(8) %6) #11
  %8 = getelementptr inbounds i8, ptr %0, i64 72
  %9 = getelementptr inbounds i8, ptr %1, i64 16
  tail call void @llvm.memcpy.p0.p0.i64(ptr noundef nonnull align 8 dereferenceable(16) %8, ptr noundef nonnull align 8 dereferenceable(16) %9, i64 16, i1 false)
  %10 = getelementptr inbounds i8, ptr %0, i64 48
  %11 = load ptr, ptr %10, align 8
  %12 = getelementptr inbounds i8, ptr %11, i64 64
  %13 = load ptr, ptr %12, align 8
  tail call void @_ZN9QLineEdit7setTextERK7QString(ptr noundef nonnull align 8 dereferenceable(48) %13, ptr noundef nonnull align 8 dereferenceable(8) %5)
  %14 = load ptr, ptr %10, align 8
  %15 = getelementptr inbounds i8, ptr %14, i64 24
  %16 = load ptr, ptr %15, align 8
  tail call void @_ZN9QLineEdit7setTextERK7QString(ptr noundef nonnull align 8 dereferenceable(48) %16, ptr noundef nonnull align 8 dereferenceable(8) %3)
  %17 = load ptr, ptr %10, align 8
  %18 = getelementptr inbounds i8, ptr %17, i64 192
  %19 = load ptr, ptr %18, align 8
  %20 = getelementptr inbounds i8, ptr %0, i64 76
  %21 = load i32, ptr %20, align 4
  tail call void @_ZN8QSpinBox8setValueEi(ptr noundef nonnull align 8 dereferenceable(48) %19, i32 noundef %21)
  %22 = load ptr, ptr %10, align 8
  %23 = getelementptr inbounds i8, ptr %22, i64 80
  %24 = load ptr, ptr %23, align 8
  %25 = load i32, ptr %8, align 8
  tail call void @_ZN8QSpinBox8setValueEi(ptr noundef nonnull align 8 dereferenceable(48) %24, i32 noundef %25)
  %26 = load ptr, ptr %10, align 8
  %27 = getelementptr inbounds i8, ptr %26, i64 168
  %28 = load ptr, ptr %27, align 8
  %29 = getelementptr inbounds i8, ptr %0, i64 80
  %30 = load i32, ptr %29, align 8
  tail call void @_ZN9QComboBox15setCurrentIndexEi(ptr noundef nonnull align 8 dereferenceable(48) %28, i32 noundef %30)
  %31 = load ptr, ptr %10, align 8
  %32 = getelementptr inbounds i8, ptr %31, i64 112
  %33 = load ptr, ptr %32, align 8
  %34 = getelementptr inbounds i8, ptr %0, i64 84
  %35 = load i8, ptr %34, align 4
  %36 = and i8 %35, 1
  %37 = icmp ne i8 %36, 0
  tail call void @_ZN15QAbstractButton10setCheckedEb(ptr noundef nonnull align 8 dereferenceable(48) %33, i1 noundef zeroext %37)
  %38 = load ptr, ptr %10, align 8
  %39 = getelementptr inbounds i8, ptr %38, i64 120
  %40 = load ptr, ptr %39, align 8
  %41 = getelementptr inbounds i8, ptr %0, i64 85
  %42 = load i8, ptr %41, align 1
  %43 = and i8 %42, 1
  %44 = icmp ne i8 %43, 0
  tail call void @_ZN15QAbstractButton10setCheckedEb(ptr noundef nonnull align 8 dereferenceable(48) %40, i1 noundef zeroext %44)
  %45 = load ptr, ptr %10, align 8
  %46 = getelementptr inbounds i8, ptr %45, i64 136
  %47 = load ptr, ptr %46, align 8
  %48 = getelementptr inbounds i8, ptr %0, i64 86
  %49 = load i8, ptr %48, align 2
  %50 = and i8 %49, 1
  %51 = icmp ne i8 %50, 0
  tail call void @_ZN15QAbstractButton10setCheckedEb(ptr noundef nonnull align 8 dereferenceable(48) %47, i1 noundef zeroext %51)
  %52 = load ptr, ptr %10, align 8
  %53 = getelementptr inbounds i8, ptr %52, i64 208
  %54 = load ptr, ptr %53, align 8
  %55 = getelementptr inbounds i8, ptr %0, i64 87
  %56 = load i8, ptr %55, align 1
  %57 = and i8 %56, 1
  %58 = icmp ne i8 %57, 0
  tail call void @_ZN15QAbstractButton10setCheckedEb(ptr noundef nonnull align 8 dereferenceable(48) %54, i1 noundef zeroext %58)
  ret void
}